target datalayout = "e-m:e-p270:32:32-p271:32:32-p272:64:64-i64:64-i128:128-f80:128-n8:16:32:64-S128"
target triple = "x86_64-pc-linux-gnu"

%struct.pm_lex_mode = type { i32, %union.anon, ptr }
%union.anon = type { %struct.anon.3 }
%struct.anon.3 = type { %struct.pm_heredoc_lex_mode_t, ptr, ptr, i8 }
%struct.pm_heredoc_lex_mode_t = type { ptr, i64, i32, i32 }
%struct.pm_encoding_t = type { ptr, ptr, ptr, ptr, ptr, i8 }
%struct.pm_parser = type { i32, i32, i32, i32, i32, i32, i32, %struct.anon, ptr, ptr, %struct.pm_token_t, %struct.pm_token_t, ptr, ptr, %struct.pm_list_t, %struct.pm_list_t, %struct.pm_location_t, %struct.pm_list_t, %struct.pm_list_t, ptr, ptr, ptr, ptr, ptr, ptr, ptr, %struct.pm_string_t, %struct.pm_constant_pool_t, %struct.pm_newline_list_t, i16, %struct.pm_string_t, i32, ptr, ptr, i32, i8, i8, i8, i8, i8, i8, i8, i8, i8, i8, i8, i8, i8 }
%struct.anon = type { ptr, [4 x %struct.pm_lex_mode], i64 }
%struct.pm_token_t = type { i32, ptr, ptr }
%struct.pm_location_t = type { ptr, ptr }
%struct.pm_list_t = type { i64, ptr, ptr }
%struct.pm_constant_pool_t = type { ptr, ptr, i32, i32 }
%struct.pm_newline_list_t = type { ptr, i64, i64, ptr }
%struct.pm_string_t = type { ptr, i64, i32 }

@pm_encodings = external constant [90 x %struct.pm_encoding_t], align 16

; Function Attrs: inlinehint nounwind sspstrong uwtable
define internal void @escape_write_byte_encoded(ptr noundef %0, ptr noundef %1, i8 noundef zeroext %2) #7 {
  %4 = alloca ptr, align 8
  %5 = alloca ptr, align 8
  %6 = alloca i8, align 1
  store ptr %0, ptr %4, align 8, !tbaa !7
  store ptr %1, ptr %5, align 8, !tbaa !57
  store i8 %2, ptr %6, align 1, !tbaa !39
  %7 = load i8, ptr %6, align 1, !tbaa !39
  %8 = zext i8 %7 to i32
  %9 = icmp sge i32 %8, 128
  br i1 %9, label %10, label %48

10:                                               ; preds = %3
  %11 = load ptr, ptr %4, align 8, !tbaa !7
  %12 = getelementptr inbounds nuw %struct.pm_parser, ptr %11, i32 0, i32 32
  %13 = load ptr, ptr %12, align 8, !tbaa !179
  %14 = icmp ne ptr %13, null
  br i1 %14, label %15, label %42

15:                                               ; preds = %10
  %16 = load ptr, ptr %4, align 8, !tbaa !7
  %17 = getelementptr inbounds nuw %struct.pm_parser, ptr %16, i32 0, i32 32
  %18 = load ptr, ptr %17, align 8, !tbaa !179
  %19 = icmp eq ptr %18, @pm_encodings
  br i1 %19, label %20, label %42

20:                                               ; preds = %15
  %21 = load ptr, ptr %4, align 8, !tbaa !7
  %22 = getelementptr inbounds nuw %struct.pm_parser, ptr %21, i32 0, i32 22
  %23 = load ptr, ptr %22, align 8, !tbaa !45
  %24 = icmp ne ptr %23, @pm_encodings
  br i1 %24, label %25, label %42

25:                                               ; preds = %20
  %26 = load ptr, ptr %4, align 8, !tbaa !7
  %27 = getelementptr inbounds nuw %struct.pm_parser, ptr %26, i32 0, i32 18
  %28 = load ptr, ptr %4, align 8, !tbaa !7
  %29 = getelementptr inbounds nuw %struct.pm_parser, ptr %28, i32 0, i32 11
  %30 = getelementptr inbounds nuw %struct.pm_token_t, ptr %29, i32 0, i32 1
  %31 = load ptr, ptr %30, align 8, !tbaa !169
  %32 = load ptr, ptr %4, align 8, !tbaa !7
  %33 = getelementptr inbounds nuw %struct.pm_parser, ptr %32, i32 0, i32 11
  %34 = getelementptr inbounds nuw %struct.pm_token_t, ptr %33, i32 0, i32 2
  %35 = load ptr, ptr %34, align 8, !tbaa !93
  %36 = load ptr, ptr %4, align 8, !tbaa !7
  %37 = getelementptr inbounds nuw %struct.pm_parser, ptr %36, i32 0, i32 22
  %38 = load ptr, ptr %37, align 8, !tbaa !45
  %39 = getelementptr inbounds nuw %struct.pm_encoding_t, ptr %38, i32 0, i32 4
  %40 = load ptr, ptr %39, align 8, !tbaa !317
  %41 = call zeroext i1 (ptr, ptr, ptr, i32, ...) @pm_diagnostic_list_append_format(ptr noundef %27, ptr noundef %31, ptr noundef %35, i32 noundef 182, ptr noundef %40)
  br label %42

42:                                               ; preds = %25, %20, %15, %10
  %43 = load ptr, ptr %4, align 8, !tbaa !7
  %44 = getelementptr inbounds nuw %struct.pm_parser, ptr %43, i32 0, i32 22
  %45 = load ptr, ptr %44, align 8, !tbaa !45
  %46 = load ptr, ptr %4, align 8, !tbaa !7
  %47 = getelementptr inbounds nuw %struct.pm_parser, ptr %46, i32 0, i32 32
  store ptr %45, ptr %47, align 8, !tbaa !179
  br label %48

48:                                               ; preds = %42, %3
  %49 = load ptr, ptr %5, align 8, !tbaa !57
  %50 = load i8, ptr %6, align 1, !tbaa !39
  call void @pm_buffer_append_byte(ptr noundef %49, i8 noundef zeroext %50)
  ret void
}