; Function Attrs: inlinehint nounwind sspstrong uwtable
define internal fastcc void @escape_write_byte_encoded(ptr noundef %0, ptr noundef nonnull %1, i8 noundef zeroext %2) unnamed_addr #11 {
  %4 = icmp slt i8 %2, 0
  br i1 %4, label %5, label %24

5:                                                ; preds = %3
  %6 = getelementptr inbounds nuw i8, ptr %0, i64 672
  %7 = load ptr, ptr %6, align 8, !tbaa !203
  %8 = icmp eq ptr %7, @pm_encodings
  br i1 %8, label %9, label %21

9:                                                ; preds = %5
  %10 = getelementptr inbounds nuw i8, ptr %0, i64 520
  %11 = load ptr, ptr %10, align 8, !tbaa !40
  %.not12 = icmp eq ptr %11, @pm_encodings
  br i1 %.not12, label %21, label %12

12:                                               ; preds = %9
  %13 = getelementptr inbounds nuw i8, ptr %0, i64 472
  %14 = getelementptr inbounds nuw i8, ptr %0, i64 352
  %15 = load ptr, ptr %14, align 8, !tbaa !165
  %16 = getelementptr inbounds nuw i8, ptr %0, i64 360
  %17 = load ptr, ptr %16, align 8, !tbaa !74
  %18 = getelementptr inbounds nuw i8, ptr %11, i64 32
  %19 = load ptr, ptr %18, align 8, !tbaa !273
  %20 = tail call zeroext i1 (ptr, ptr, ptr, i32, ...) @pm_diagnostic_list_append_format(ptr noundef nonnull %13, ptr noundef %15, ptr noundef %17, i32 noundef 182, ptr noundef %19) #31
  br label %21

21:                                               ; preds = %12, %9, %5
  %22 = getelementptr inbounds nuw i8, ptr %0, i64 520
  %23 = load ptr, ptr %22, align 8, !tbaa !40
  store ptr %23, ptr %6, align 8, !tbaa !203
  br label %24

24:                                               ; preds = %21, %3
  tail call void @pm_buffer_append_byte(ptr noundef nonnull %1, i8 noundef zeroext %2) #31
  ret void
}